target datalayout = "e-m:e-p270:32:32-p271:32:32-p272:64:64-i64:64-i128:128-f80:128-n8:16:32:64-S128"
target triple = "x86_64-pc-linux-gnu"

%struct.PlatformTarget = type { ptr, i32, ptr, ptr, i32, i32, i32, i32, i32, i32, i32, [7 x %struct.AlignData], [7 x %struct.AlignData], [7 x %struct.AlignData], i32, i16, %union.anon.85, i8, i8, i8, i8, i8, i8, i8, i8, i8, i8, %struct.AlignData, i32, i32, i32, i32, i32, i32, i32, i32, i32, i32, i32, i32, i32, i32, i32, i32, ptr }
%union.anon.85 = type { %struct.anon.87 }
%struct.anon.87 = type { %struct.X86Features, i32, i32 }
%struct.X86Features = type { [2 x i64], ptr }
%struct.AlignData = type { i32, i32 }
%struct.Type_ = type { i32, ptr, ptr, ptr, %union.anon.96, ptr, ptr, %union.anon.98 }
%union.anon.96 = type { ptr }
%union.anon.98 = type { %struct.TypeFunction }
%struct.TypeFunction = type { ptr, ptr, ptr }
%struct.TypeArray = type { ptr, i32 }

@platform_target = external global %struct.PlatformTarget, align 8
@type_voidptr = external global ptr, align 8
@type_u128 = external global ptr, align 8
@type_ulong = external global ptr, align 8
@type_void = external global ptr, align 8

; Function Attrs: nounwind uwtable
define internal i32 @aligned_offset(i32 noundef %0, i32 noundef %1) #0 {
  %3 = alloca i32, align 4
  %4 = alloca i32, align 4
  store i32 %0, ptr %3, align 4
  store i32 %1, ptr %4, align 4
  %5 = load i32, ptr %3, align 4
  %6 = load i32, ptr %4, align 4
  %7 = add i32 %5, %6
  %8 = sub i32 %7, 1
  %9 = load i32, ptr %4, align 4
  %10 = udiv i32 %8, %9
  %11 = load i32, ptr %4, align 4
  %12 = mul i32 %10, %11
  ret i32 %12
}

; Function Attrs: nounwind uwtable
define internal zeroext i1 @is_power_of_two(i64 noundef %0) #0 {
  %2 = alloca i64, align 8
  store i64 %0, ptr %2, align 8
  %3 = load i64, ptr %2, align 8
  %4 = icmp ne i64 %3, 0
  br i1 %4, label %5, label %11

5:                                                ; preds = %1
  %6 = load i64, ptr %2, align 8
  %7 = load i64, ptr %2, align 8
  %8 = sub i64 %7, 1
  %9 = and i64 %6, %8
  %10 = icmp eq i64 %9, 0
  br label %11

11:                                               ; preds = %5, %1
  %12 = phi i1 [ false, %1 ], [ %10, %5 ]
  ret i1 %12
}

; Function Attrs: nounwind uwtable
define dso_local ptr @aarch64_classify_argument_type(ptr noundef %0) #0 {
  %2 = alloca ptr, align 8
  %3 = alloca i32, align 4
  %4 = alloca ptr, align 8
  %5 = alloca i1, align 1
  %6 = alloca ptr, align 8
  %7 = alloca i32, align 4
  %8 = alloca ptr, align 8
  %9 = alloca ptr, align 8
  %10 = alloca ptr, align 8
  %11 = alloca i32, align 4
  %12 = alloca ptr, align 8
  %13 = alloca i32, align 4
  %14 = alloca i32, align 4
  %15 = alloca i32, align 4
  store ptr %0, ptr %10, align 8
  %16 = load ptr, ptr %10, align 8
  %17 = call ptr @type_lowering(ptr noundef %16)
  store ptr %17, ptr %10, align 8
  %18 = load ptr, ptr %10, align 8
  store ptr %18, ptr %8, align 8
  %19 = load ptr, ptr %8, align 8
  %20 = getelementptr inbounds %struct.Type_, ptr %19, i32 0, i32 1
  %21 = load ptr, ptr %20, align 8
  %22 = load ptr, ptr @type_void, align 8
  %23 = icmp eq ptr %21, %22
  br i1 %23, label %24, label %26

24:                                               ; preds = %1
  %25 = call ptr @abi_arg_ignore()
  store ptr %25, ptr %9, align 8
  br label %165

26:                                               ; preds = %1
  %27 = load ptr, ptr %10, align 8
  store ptr %27, ptr %6, align 8
  %28 = load ptr, ptr %6, align 8
  %29 = load i32, ptr %28, align 8
  %30 = icmp ne i32 %29, 37
  br i1 %30, label %31, label %32

31:                                               ; preds = %26
  store i1 false, ptr %5, align 1
  br label %49

32:                                               ; preds = %26
  %33 = load ptr, ptr %6, align 8
  %34 = getelementptr inbounds %struct.Type_, ptr %33, i32 0, i32 7
  %35 = getelementptr inbounds %struct.TypeArray, ptr %34, i32 0, i32 1
  %36 = load i32, ptr %35, align 8
  store i32 %36, ptr %7, align 4
  %37 = load i32, ptr %7, align 4
  %38 = zext i32 %37 to i64
  %39 = call zeroext i1 @is_power_of_two(i64 noundef %38)
  br i1 %39, label %41, label %40

40:                                               ; preds = %32
  store i1 true, ptr %5, align 1
  br label %49

41:                                               ; preds = %32
  %42 = load ptr, ptr %6, align 8
  %43 = call i32 @type_size(ptr noundef %42) #3
  switch i32 %43, label %48 [
    i32 8, label %44
    i32 16, label %45
  ]

44:                                               ; preds = %41
  store i1 false, ptr %5, align 1
  br label %49

45:                                               ; preds = %41
  %46 = load i32, ptr %7, align 4
  %47 = icmp eq i32 %46, 1
  store i1 %47, ptr %5, align 1
  br label %49

48:                                               ; preds = %41
  store i1 true, ptr %5, align 1
  br label %49

49:                                               ; preds = %48, %45, %44, %40, %31
  %50 = load i1, ptr %5, align 1
  br i1 %50, label %51, label %54

51:                                               ; preds = %49
  %52 = load ptr, ptr %10, align 8
  %53 = call ptr @aarch64_coerce_illegal_vector(ptr noundef %52)
  store ptr %53, ptr %9, align 8
  br label %165

54:                                               ; preds = %49
  %55 = load ptr, ptr %10, align 8
  %56 = call i32 @type_size(ptr noundef %55)
  store i32 %56, ptr %11, align 4
  %57 = load ptr, ptr %10, align 8
  %58 = call zeroext i1 @type_is_abi_aggregate(ptr noundef %57)
  br i1 %58, label %98, label %59

59:                                               ; preds = %54
  %60 = load ptr, ptr %10, align 8
  store ptr %60, ptr %4, align 8
  %61 = load ptr, ptr %4, align 8
  store ptr %61, ptr %2, align 8
  %62 = load ptr, ptr %2, align 8
  %63 = load i32, ptr %62, align 8
  store i32 %63, ptr %3, align 4
  %64 = load i32, ptr %3, align 4
  %65 = icmp eq i32 %64, 31
  br i1 %65, label %66, label %71

66:                                               ; preds = %59
  %67 = load ptr, ptr %2, align 8
  %68 = getelementptr inbounds %struct.Type_, ptr %67, i32 0, i32 1
  %69 = load ptr, ptr %68, align 8
  %70 = load i32, ptr %69, align 8
  store i32 %70, ptr %3, align 4
  br label %71

71:                                               ; preds = %66, %59
  %72 = load i32, ptr %3, align 4
  %73 = icmp uge i32 %72, 2
  br i1 %73, label %74, label %77

74:                                               ; preds = %71
  %75 = load i32, ptr %3, align 4
  %76 = icmp ule i32 %75, 12
  br label %77

77:                                               ; preds = %74, %71
  %78 = phi i1 [ false, %71 ], [ %76, %74 ]
  br i1 %78, label %79, label %86

79:                                               ; preds = %77
  %80 = load ptr, ptr %4, align 8
  %81 = getelementptr inbounds %struct.Type_, ptr %80, i32 0, i32 7
  %82 = load i32, ptr %81, align 8
  %83 = and i32 %82, 255
  %84 = load i32, ptr getelementptr inbounds (%struct.PlatformTarget, ptr @platform_target, i32 0, i32 33), align 8
  %85 = icmp ult i32 %83, %84
  br label %86

86:                                               ; preds = %79, %77
  %87 = phi i1 [ false, %77 ], [ %85, %79 ]
  br i1 %87, label %88, label %96

88:                                               ; preds = %86
  %89 = load i8, ptr getelementptr inbounds (%struct.PlatformTarget, ptr @platform_target, i32 0, i32 16), align 8
  %90 = lshr i8 %89, 1
  %91 = and i8 %90, 1
  %92 = trunc i8 %91 to i1
  br i1 %92, label %93, label %96

93:                                               ; preds = %88
  %94 = load ptr, ptr %10, align 8
  %95 = call ptr @abi_arg_new_direct_int_ext(ptr noundef %94)
  store ptr %95, ptr %9, align 8
  br label %165

96:                                               ; preds = %88, %86
  %97 = call ptr @abi_arg_new_direct()
  store ptr %97, ptr %9, align 8
  br label %165

98:                                               ; preds = %54
  %99 = load i32, ptr %11, align 4
  %100 = icmp ne i32 %99, 0
  br i1 %100, label %103, label %101

101:                                              ; preds = %98
  %102 = call ptr @abi_arg_ignore()
  store ptr %102, ptr %9, align 8
  br label %165

103:                                              ; preds = %98
  store ptr null, ptr %12, align 8
  store i32 0, ptr %13, align 4
  %104 = load ptr, ptr %10, align 8
  %105 = call zeroext i1 @type_is_homogenous_aggregate(ptr noundef %104, ptr noundef %12, ptr noundef %13)
  br i1 %105, label %106, label %117

106:                                              ; preds = %103
  %107 = load i32, ptr %13, align 4
  %108 = icmp ugt i32 %107, 1
  br i1 %108, label %109, label %114

109:                                              ; preds = %106
  %110 = load ptr, ptr %12, align 8
  %111 = load i32, ptr %13, align 4
  %112 = call ptr @type_get_array(ptr noundef %110, i32 noundef %111)
  %113 = call ptr @abi_arg_new_direct_coerce_type(ptr noundef %112)
  store ptr %113, ptr %9, align 8
  br label %165

114:                                              ; preds = %106
  %115 = load ptr, ptr %12, align 8
  %116 = call ptr @abi_arg_new_direct_coerce_type(ptr noundef %115)
  store ptr %116, ptr %9, align 8
  br label %165

117:                                              ; preds = %103
  %118 = load i32, ptr %11, align 4
  %119 = icmp ule i32 %118, 16
  br i1 %119, label %120, label %162

120:                                              ; preds = %117
  %121 = load ptr, ptr %10, align 8
  %122 = call i32 @type_abi_alignment(ptr noundef %121)
  store i32 %122, ptr %14, align 4
  %123 = load i8, ptr getelementptr inbounds (%struct.PlatformTarget, ptr @platform_target, i32 0, i32 16), align 8
  %124 = and i8 %123, 1
  %125 = trunc i8 %124 to i1
  br i1 %125, label %126, label %130

126:                                              ; preds = %120
  %127 = load i32, ptr %14, align 4
  %128 = icmp ult i32 %127, 16
  %129 = select i1 %128, i32 8, i32 16
  store i32 %129, ptr %14, align 4
  br label %139

130:                                              ; preds = %120
  %131 = load i32, ptr %14, align 4
  %132 = load ptr, ptr @type_voidptr, align 8
  %133 = call i32 @type_abi_alignment(ptr noundef %132)
  %134 = icmp ult i32 %131, %133
  br i1 %134, label %135, label %138

135:                                              ; preds = %130
  %136 = load ptr, ptr @type_voidptr, align 8
  %137 = call i32 @type_abi_alignment(ptr noundef %136)
  store i32 %137, ptr %14, align 4
  br label %138

138:                                              ; preds = %135, %130
  br label %139

139:                                              ; preds = %138, %126
  %140 = load i32, ptr %11, align 4
  %141 = load i32, ptr %14, align 4
  %142 = call i32 @aligned_offset(i32 noundef %140, i32 noundef %141)
  store i32 %142, ptr %11, align 4
  %143 = load i32, ptr %14, align 4
  %144 = icmp eq i32 %143, 16
  br i1 %144, label %145, label %148

145:                                              ; preds = %139
  %146 = load ptr, ptr @type_u128, align 8
  %147 = call ptr @abi_arg_new_direct_coerce_type(ptr noundef %146)
  store ptr %147, ptr %9, align 8
  br label %165

148:                                              ; preds = %139
  %149 = load i32, ptr %11, align 4
  %150 = load i32, ptr %14, align 4
  %151 = udiv i32 %149, %150
  store i32 %151, ptr %15, align 4
  %152 = load i32, ptr %15, align 4
  %153 = icmp ugt i32 %152, 1
  br i1 %153, label %154, label %159

154:                                              ; preds = %148
  %155 = load ptr, ptr @type_ulong, align 8
  %156 = load i32, ptr %15, align 4
  %157 = call ptr @type_get_array(ptr noundef %155, i32 noundef %156)
  %158 = call ptr @abi_arg_new_direct_coerce_type(ptr noundef %157)
  store ptr %158, ptr %9, align 8
  br label %165

159:                                              ; preds = %148
  %160 = load ptr, ptr @type_ulong, align 8
  %161 = call ptr @abi_arg_new_direct_coerce_type(ptr noundef %160)
  store ptr %161, ptr %9, align 8
  br label %165

162:                                              ; preds = %117
  %163 = load ptr, ptr %10, align 8
  %164 = call ptr @abi_arg_new_indirect_not_by_val(ptr noundef %163)
  store ptr %164, ptr %9, align 8
  br label %165

165:                                              ; preds = %162, %159, %154, %145, %114, %109, %101, %96, %93, %51, %24
  %166 = load ptr, ptr %9, align 8
  ret ptr %166
}