; Function Attrs: nounwind uwtable
define dso_local ptr @aarch64_classify_argument_type(ptr nocapture noundef readonly %0) local_unnamed_addr #0 {
  %2 = alloca ptr, align 8
  %3 = alloca i32, align 4
  %4 = tail call fastcc ptr @type_lowering(ptr noundef %0)
  %5 = getelementptr inbounds i8, ptr %4, i64 8
  %6 = load ptr, ptr %5, align 8
  %7 = load ptr, ptr @type_void, align 8
  %8 = icmp eq ptr %6, %7
  br i1 %8, label %9, label %11

9:                                                ; preds = %1
  %10 = tail call ptr @abi_arg_ignore() #4
  br label %96

11:                                               ; preds = %1
  %12 = load i32, ptr %4, align 8
  %.not = icmp eq i32 %12, 37
  br i1 %.not, label %13, label %.critedge49

13:                                               ; preds = %11
  %14 = getelementptr inbounds i8, ptr %4, i64 64
  %15 = load i32, ptr %14, align 8
  %16 = tail call i32 @llvm.ctpop.i32(i32 %15), !range !7
  %or.cond = icmp eq i32 %16, 1
  br i1 %or.cond, label %17, label %.critedge47

17:                                               ; preds = %13
  %18 = tail call i32 @type_size(ptr noundef nonnull %4) #4
  switch i32 %18, label %.critedge47 [
    i32 8, label %.critedge49
    i32 16, label %19
  ]

19:                                               ; preds = %17
  %20 = icmp eq i32 %15, 1
  br i1 %20, label %.critedge47, label %.critedge49

.critedge47:                                      ; preds = %13, %17, %19
  %21 = tail call ptr @aarch64_coerce_illegal_vector(ptr noundef nonnull %4)
  br label %96

.critedge49:                                      ; preds = %11, %17, %19
  %22 = tail call i32 @type_size(ptr noundef nonnull %4) #4
  %23 = tail call zeroext i1 @type_is_abi_aggregate(ptr noundef nonnull %4) #4
  br i1 %23, label %45, label %24

24:                                               ; preds = %.critedge49
  %25 = load i32, ptr %4, align 8
  %26 = icmp eq i32 %25, 31
  br i1 %26, label %27, label %30

27:                                               ; preds = %24
  %28 = load ptr, ptr %5, align 8
  %29 = load i32, ptr %28, align 8
  br label %30

30:                                               ; preds = %27, %24
  %.0 = phi i32 [ %29, %27 ], [ %25, %24 ]
  %31 = add i32 %.0, -2
  %32 = icmp ult i32 %31, 11
  br i1 %32, label %33, label %.critedge

33:                                               ; preds = %30
  %34 = getelementptr inbounds i8, ptr %4, i64 56
  %35 = load i32, ptr %34, align 8
  %36 = and i32 %35, 255
  %37 = load i32, ptr getelementptr inbounds (%struct.PlatformTarget, ptr @platform_target, i64 0, i32 33), align 8
  %38 = icmp ult i32 %36, %37
  br i1 %38, label %39, label %.critedge

39:                                               ; preds = %33
  %40 = load i8, ptr getelementptr inbounds (%struct.PlatformTarget, ptr @platform_target, i64 0, i32 16), align 8
  %41 = and i8 %40, 2
  %.not44 = icmp eq i8 %41, 0
  br i1 %.not44, label %.critedge, label %42

42:                                               ; preds = %39
  %43 = tail call ptr @abi_arg_new_direct_int_ext(ptr noundef nonnull %4) #4
  br label %96

.critedge:                                        ; preds = %30, %39, %33
  %44 = tail call ptr @abi_arg_new_direct() #4
  br label %96

45:                                               ; preds = %.critedge49
  %.not45 = icmp eq i32 %22, 0
  br i1 %.not45, label %46, label %48

46:                                               ; preds = %45
  %47 = tail call ptr @abi_arg_ignore() #4
  br label %96

48:                                               ; preds = %45
  store ptr null, ptr %2, align 8
  store i32 0, ptr %3, align 4
  %49 = call zeroext i1 @type_is_homogenous_aggregate(ptr noundef nonnull %4, ptr noundef nonnull %2, ptr noundef nonnull %3) #4
  br i1 %49, label %50, label %59

50:                                               ; preds = %48
  %51 = load i32, ptr %3, align 4
  %52 = icmp ugt i32 %51, 1
  %53 = load ptr, ptr %2, align 8
  br i1 %52, label %54, label %57

54:                                               ; preds = %50
  %55 = call ptr @type_get_array(ptr noundef %53, i32 noundef %51) #4
  %56 = call ptr @abi_arg_new_direct_coerce_type(ptr noundef %55) #4
  br label %96

57:                                               ; preds = %50
  %58 = call ptr @abi_arg_new_direct_coerce_type(ptr noundef %53) #4
  br label %96

59:                                               ; preds = %48
  %60 = icmp ult i32 %22, 17
  br i1 %60, label %61, label %94

61:                                               ; preds = %59
  %62 = call i32 @type_abi_alignment(ptr noundef nonnull %4) #4
  %63 = load i8, ptr getelementptr inbounds (%struct.PlatformTarget, ptr @platform_target, i64 0, i32 16), align 8
  %64 = trunc i8 %63 to i1
  br i1 %64, label %65, label %67

65:                                               ; preds = %61
  %66 = icmp ult i32 %62, 16
  br i1 %66, label %.thread51, label %.thread

67:                                               ; preds = %61
  %68 = load ptr, ptr @type_voidptr, align 8
  %69 = call i32 @type_abi_alignment(ptr noundef %68) #4
  %70 = icmp ult i32 %62, %69
  br i1 %70, label %71, label %76

71:                                               ; preds = %67
  %72 = load ptr, ptr @type_voidptr, align 8
  %73 = call i32 @type_abi_alignment(ptr noundef %72) #4
  br label %76

.thread51:                                        ; preds = %65
  %74 = add nuw nsw i32 %22, 7
  %75 = and i32 %74, 56
  br label %84

76:                                               ; preds = %67, %71
  %.036 = phi i32 [ %73, %71 ], [ %62, %67 ]
  %77 = add nsw i32 %22, -1
  %78 = add i32 %77, %.036
  %79 = urem i32 %78, %.036
  %80 = sub nuw i32 %78, %79
  %81 = icmp eq i32 %.036, 16
  br i1 %81, label %.thread, label %84

.thread:                                          ; preds = %65, %76
  %82 = load ptr, ptr @type_u128, align 8
  %83 = call ptr @abi_arg_new_direct_coerce_type(ptr noundef %82) #4
  br label %96

84:                                               ; preds = %.thread51, %76
  %85 = phi i32 [ %75, %.thread51 ], [ %80, %76 ]
  %.03653 = phi i32 [ 8, %.thread51 ], [ %.036, %76 ]
  %86 = udiv i32 %85, %.03653
  %87 = icmp ugt i32 %86, 1
  %88 = load ptr, ptr @type_ulong, align 8
  br i1 %87, label %89, label %92

89:                                               ; preds = %84
  %90 = call ptr @type_get_array(ptr noundef %88, i32 noundef %86) #4
  %91 = call ptr @abi_arg_new_direct_coerce_type(ptr noundef %90) #4
  br label %96

92:                                               ; preds = %84
  %93 = call ptr @abi_arg_new_direct_coerce_type(ptr noundef %88) #4
  br label %96

94:                                               ; preds = %59
  %95 = call ptr @abi_arg_new_indirect_not_by_val(ptr noundef nonnull %4) #4
  br label %96

96:                                               ; preds = %94, %92, %89, %.thread, %57, %54, %46, %.critedge, %42, %.critedge47, %9
  %.037 = phi ptr [ %10, %9 ], [ %21, %.critedge47 ], [ %56, %54 ], [ %58, %57 ], [ %83, %.thread ], [ %91, %89 ], [ %93, %92 ], [ %95, %94 ], [ %47, %46 ], [ %43, %42 ], [ %44, %.critedge ]
  ret ptr %.037
}